; Function Attrs: mustprogress nofree norecurse nosync nounwind memory(readwrite, inaccessiblemem: none) uwtable
define dso_local void @_ZN23btReducedDeformableBody24applyReducedElasticForceERK20btAlignedObjectArrayIfE(ptr noundef nonnull readonly align 8 captures(none) dereferenceable(3176) %0, ptr noundef nonnull readonly align 8 captures(none) dereferenceable(25) %1) local_unnamed_addr #13 align 2 {
  %3 = getelementptr inbounds nuw i8, ptr %0, i64 2712
  %4 = load i32, ptr %3, align 8, !tbaa !132
  %5 = icmp sgt i32 %4, 0
  br i1 %5, label %.lr.ph, label %._crit_edge

.lr.ph:                                           ; preds = %2
  %6 = getelementptr inbounds nuw i8, ptr %0, i64 2072
  %7 = getelementptr inbounds nuw i8, ptr %0, i64 3024
  %8 = load ptr, ptr %7, align 8, !tbaa !120
  %9 = getelementptr inbounds nuw i8, ptr %1, i64 16
  %10 = load ptr, ptr %9, align 8, !tbaa !120
  %11 = getelementptr inbounds nuw i8, ptr %0, i64 2928
  %12 = load ptr, ptr %11, align 8, !tbaa !120
  %wide.trip.count = zext nneg i32 %4 to i64
  br label %13

._crit_edge:                                      ; preds = %13, %2
  ret void

13:                                               ; preds = %.lr.ph, %13
  %indvars.iv = phi i64 [ 0, %.lr.ph ], [ %indvars.iv.next, %13 ]
  %14 = load float, ptr %6, align 8, !tbaa !136
  %15 = fneg float %14
  %16 = getelementptr inbounds nuw float, ptr %8, i64 %indvars.iv
  %17 = load float, ptr %16, align 4, !tbaa !138
  %18 = fmul float %17, %15
  %19 = getelementptr inbounds nuw float, ptr %10, i64 %indvars.iv
  %20 = load float, ptr %19, align 4, !tbaa !138
  %21 = fmul float %18, %20
  %22 = getelementptr inbounds nuw float, ptr %12, i64 %indvars.iv
  store float %21, ptr %22, align 4, !tbaa !138
  %indvars.iv.next = add nuw nsw i64 %indvars.iv, 1
  %exitcond.not = icmp eq i64 %indvars.iv.next, %wide.trip.count
  br i1 %exitcond.not, label %._crit_edge, label %13, !llvm.loop !261
}